(lp0
(imedia
Movie
p1
(dp2
S'poster_image_url'
p3
Vhttp://ia.media-imdb.com/images/M/MV5BMjgzNTUwODQzN15BMl5BanBnXkFtZTcwMTc4ODE3OQ@@._V1._SX94_SY140_.jpg
p4
sS'storyline'
p5
VOn a journey to find the cure for a Tatarigami's curse, Ashitaka finds himself in the middle of a war between the forest gods and Tatara, a mining colony. In this quest he also meets San, the Mononoke Hime.
p6
sS'trailer_youtube_url'
p7
S''
p8
sS'title'
p9
VMononoke-hime
p10
sba.